; Function Attrs: null_pointer_is_valid sspstrong uwtable
define internal void @dissect_r3_upstreammfgfield_lockstate(ptr noundef %0, i32 noundef %1, i32 %2, ptr readnone captures(none) %3, ptr noundef %4) #0 {
  %6 = icmp eq i32 %1, 0
  br i1 %6, label %8, label %7

7:                                                ; preds = %5
  tail call void (ptr, ...) @proto_report_dissector_bug(ptr noundef nonnull @.str.1860, ptr noundef nonnull @.str.1861, i32 noundef 4703, ptr noundef nonnull @.str.1862) #6
  unreachable

8:                                                ; preds = %5
  %9 = load i32, ptr @hf_r3_lockstate, align 4
  %10 = load i32, ptr @ett_r3lockstate, align 4
  %11 = tail call ptr @proto_tree_add_bitmask(ptr noundef %4, ptr noundef %0, i32 noundef 0, i32 noundef %9, i32 noundef %10, ptr noundef nonnull @dissect_r3_upstreammfgfield_lockstate.r3_lockstate_flags, i32 noundef -2147483648)
  ret void
}